target datalayout = "e-m:e-p270:32:32-p271:32:32-p272:64:64-i64:64-i128:128-f80:128-n8:16:32:64-S128"
target triple = "x86_64-pc-linux-gnu"

%class.GrowableArrayBase = type { i32, i32 }
%class.GrowableArrayView = type { %class.GrowableArrayBase, ptr }

@_ZN2os5Linux19_numa_set_preferredE = external global ptr, align 8
@_ZN2os5Linux15_nindex_to_nodeE = external global ptr, align 8

; Function Attrs: mustprogress nounwind uwtable
define linkonce_odr hidden noundef nonnull align 4 dereferenceable(4) ptr @_ZNK17GrowableArrayViewIiE2atEi(ptr noundef nonnull align 8 dereferenceable(16) %0, i32 noundef %1) #1 comdat align 2 {
  %3 = alloca ptr, align 8
  %4 = alloca i32, align 4
  store ptr %0, ptr %3, align 8
  store i32 %1, ptr %4, align 4
  %5 = load ptr, ptr %3, align 8
  %6 = getelementptr inbounds %class.GrowableArrayView, ptr %5, i32 0, i32 1
  %7 = load ptr, ptr %6, align 8
  %8 = load i32, ptr %4, align 4
  %9 = sext i32 %8 to i64
  %10 = getelementptr inbounds i32, ptr %7, i64 %9
  ret ptr %10
}

; Function Attrs: mustprogress nounwind uwtable
define linkonce_odr hidden noundef i32 @_ZNK17GrowableArrayBase6lengthEv(ptr noundef nonnull align 4 dereferenceable(8) %0) #1 comdat align 2 {
  %2 = alloca ptr, align 8
  store ptr %0, ptr %2, align 8
  %3 = load ptr, ptr %2, align 8
  %4 = getelementptr inbounds %class.GrowableArrayBase, ptr %3, i32 0, i32 0
  %5 = load i32, ptr %4, align 4
  ret i32 %5
}

; Function Attrs: mustprogress nounwind uwtable
define linkonce_odr hidden noundef ptr @_ZN2os5Linux19numa_nindex_to_nodeEv() #1 comdat align 2 {
  %1 = load ptr, ptr @_ZN2os5Linux15_nindex_to_nodeE, align 8
  ret ptr %1
}

; Function Attrs: mustprogress nounwind uwtable
define linkonce_odr hidden noundef i64 @_Z10to_zoffsetm(i64 noundef %0) #1 comdat {
  %2 = alloca i64, align 8
  store i64 %0, ptr %2, align 8
  %3 = load i64, ptr %2, align 8
  ret i64 %3
}

; Function Attrs: mustprogress nounwind uwtable
define linkonce_odr hidden noundef i64 @_Z6untype7zoffset(i64 noundef %0) #1 comdat {
  %2 = alloca i64, align 8
  %3 = alloca i64, align 8
  store i64 %0, ptr %2, align 8
  %4 = load i64, ptr %2, align 8
  store i64 %4, ptr %3, align 8
  %5 = load i64, ptr %3, align 8
  ret i64 %5
}

; Function Attrs: mustprogress nounwind uwtable
define linkonce_odr hidden void @_ZN2os5Linux18numa_set_preferredEi(i32 noundef %0) #1 comdat align 2 {
  %2 = alloca i32, align 4
  store i32 %0, ptr %2, align 4
  %3 = load ptr, ptr @_ZN2os5Linux19_numa_set_preferredE, align 8
  %4 = icmp ne ptr %3, null
  br i1 %4, label %5, label %8

5:                                                ; preds = %1
  %6 = load ptr, ptr @_ZN2os5Linux19_numa_set_preferredE, align 8
  %7 = load i32, ptr %2, align 4
  call void %6(i32 noundef %7)
  br label %8

8:                                                ; preds = %5, %1
  ret void
}

; Function Attrs: mustprogress nounwind uwtable
define internal noundef i32 @_ZL14offset_to_node7zoffset(i64 noundef %0) #1 {
  %2 = alloca i64, align 8
  %3 = alloca ptr, align 8
  %4 = alloca i64, align 8
  store i64 %0, ptr %2, align 8
  %5 = call noundef ptr @_ZN2os5Linux19numa_nindex_to_nodeEv()
  store ptr %5, ptr %3, align 8
  %6 = load i64, ptr %2, align 8
  %7 = call noundef i64 @_Z6untype7zoffset(i64 noundef %6)
  %8 = lshr i64 %7, 21
  %9 = load ptr, ptr %3, align 8
  %10 = call noundef i32 @_ZNK17GrowableArrayBase6lengthEv(ptr noundef nonnull align 4 dereferenceable(8) %9)
  %11 = sext i32 %10 to i64
  %12 = urem i64 %8, %11
  store i64 %12, ptr %4, align 8
  %13 = load ptr, ptr %3, align 8
  %14 = load i64, ptr %4, align 8
  %15 = trunc i64 %14 to i32
  %16 = call noundef nonnull align 4 dereferenceable(4) ptr @_ZNK17GrowableArrayViewIiE2atEi(ptr noundef nonnull align 8 dereferenceable(16) %13, i32 noundef %15)
  %17 = load i32, ptr %16, align 4
  ret i32 %17
}

; Function Attrs: mustprogress nounwind uwtable
define linkonce_odr hidden noundef i64 @_Zpl7zoffsetm(i64 noundef %0, i64 noundef %1) #1 comdat {
  %3 = alloca i64, align 8
  %4 = alloca i64, align 8
  store i64 %0, ptr %3, align 8
  store i64 %1, ptr %4, align 8
  %5 = load i64, ptr %3, align 8
  %6 = call noundef i64 @_Z6untype7zoffset(i64 noundef %5)
  %7 = load i64, ptr %4, align 8
  %8 = add i64 %6, %7
  %9 = call noundef i64 @_Z10to_zoffsetm(i64 noundef %8)
  ret i64 %9
}

; Function Attrs: mustprogress nounwind uwtable
define hidden noundef i64 @_ZNK22ZPhysicalMemoryBacking23commit_numa_interleavedE7zoffsetm(ptr noundef nonnull align 8 dereferenceable(41) %0, i64 noundef %1, i64 noundef %2) #1 align 2 {
  %4 = alloca ptr, align 8
  %5 = alloca i64, align 8
  %6 = alloca i64, align 8
  %7 = alloca i64, align 8
  %8 = alloca i64, align 8
  store ptr %0, ptr %4, align 8
  store i64 %1, ptr %5, align 8
  store i64 %2, ptr %6, align 8
  %9 = load ptr, ptr %4, align 8
  store i64 0, ptr %7, align 8
  br label %10

10:                                               ; preds = %23, %3
  %11 = load i64, ptr %7, align 8
  %12 = load i64, ptr %6, align 8
  %13 = icmp ult i64 %11, %12
  br i1 %13, label %14, label %26

14:                                               ; preds = %10
  %15 = load i64, ptr %5, align 8
  %16 = load i64, ptr %7, align 8
  %17 = call noundef i64 @_Zpl7zoffsetm(i64 noundef %15, i64 noundef %16)
  store i64 %17, ptr %8, align 8
  %18 = load i64, ptr %8, align 8
  %19 = call noundef i32 @_ZL14offset_to_node7zoffset(i64 noundef %18)
  call void @_ZN2os5Linux18numa_set_preferredEi(i32 noundef %19)
  %20 = load i64, ptr %8, align 8
  %21 = call noundef zeroext i1 @_ZNK22ZPhysicalMemoryBacking12commit_innerE7zoffsetm(ptr noundef nonnull align 8 dereferenceable(41) %9, i64 noundef %20, i64 noundef 2097152)
  br i1 %21, label %23, label %22

22:                                               ; preds = %14
  br label %26

23:                                               ; preds = %14
  %24 = load i64, ptr %7, align 8
  %25 = add i64 %24, 2097152
  store i64 %25, ptr %7, align 8
  br label %10, !llvm.loop !10

26:                                               ; preds = %22, %10
  call void @_ZN2os5Linux18numa_set_preferredEi(i32 noundef -1)
  %27 = load i64, ptr %7, align 8
  ret i64 %27
}