; Function Attrs: mustprogress nounwind uwtable
define hidden noundef i64 @_ZNK22ZPhysicalMemoryBacking23commit_numa_interleavedE7zoffsetm(ptr noundef nonnull align 8 dereferenceable(41) %0, i64 noundef %1, i64 noundef %2) local_unnamed_addr #0 align 2 {
  %.not = icmp eq i64 %2, 0
  br i1 %.not, label %_ZN2os5Linux18numa_set_preferredEi.exit._crit_edge, label %.lr.ph

.lr.ph:                                           ; preds = %3, %18
  %.010 = phi i64 [ %19, %18 ], [ 0, %3 ]
  %4 = add i64 %.010, %1
  %5 = load ptr, ptr @_ZN2os5Linux19_numa_set_preferredE, align 8
  %.not.i = icmp eq ptr %5, null
  br i1 %.not.i, label %_ZN2os5Linux18numa_set_preferredEi.exit, label %6

6:                                                ; preds = %.lr.ph
  %7 = load ptr, ptr @_ZN2os5Linux15_nindex_to_nodeE, align 8
  %8 = getelementptr inbounds i8, ptr %7, i64 8
  %9 = load ptr, ptr %8, align 8
  %10 = lshr i64 %4, 21
  %11 = load i32, ptr %7, align 4
  %12 = sext i32 %11 to i64
  %13 = urem i64 %10, %12
  %sext.i = shl i64 %13, 32
  %14 = ashr exact i64 %sext.i, 30
  %15 = getelementptr inbounds i8, ptr %9, i64 %14
  %16 = load i32, ptr %15, align 4
  tail call void %5(i32 noundef %16) #12
  br label %_ZN2os5Linux18numa_set_preferredEi.exit

_ZN2os5Linux18numa_set_preferredEi.exit:          ; preds = %.lr.ph, %6
  %17 = tail call noundef zeroext i1 @_ZNK22ZPhysicalMemoryBacking12commit_innerE7zoffsetm(ptr noundef nonnull align 8 dereferenceable(41) %0, i64 noundef %4, i64 noundef 2097152)
  br i1 %17, label %18, label %_ZN2os5Linux18numa_set_preferredEi.exit._crit_edge

18:                                               ; preds = %_ZN2os5Linux18numa_set_preferredEi.exit
  %19 = add i64 %.010, 2097152
  %20 = icmp ult i64 %19, %2
  br i1 %20, label %.lr.ph, label %_ZN2os5Linux18numa_set_preferredEi.exit._crit_edge, !llvm.loop !10

_ZN2os5Linux18numa_set_preferredEi.exit._crit_edge: ; preds = %18, %_ZN2os5Linux18numa_set_preferredEi.exit, %3
  %.0.lcssa = phi i64 [ 0, %3 ], [ %.010, %_ZN2os5Linux18numa_set_preferredEi.exit ], [ %19, %18 ]
  %21 = load ptr, ptr @_ZN2os5Linux19_numa_set_preferredE, align 8
  %.not.i8 = icmp eq ptr %21, null
  br i1 %.not.i8, label %_ZN2os5Linux18numa_set_preferredEi.exit9, label %22

22:                                               ; preds = %_ZN2os5Linux18numa_set_preferredEi.exit._crit_edge
  tail call void %21(i32 noundef -1) #12
  br label %_ZN2os5Linux18numa_set_preferredEi.exit9

_ZN2os5Linux18numa_set_preferredEi.exit9:         ; preds = %_ZN2os5Linux18numa_set_preferredEi.exit._crit_edge, %22
  ret i64 %.0.lcssa
}